target datalayout = "e-m:e-p270:32:32-p271:32:32-p272:64:64-i64:64-i128:128-f80:128-n8:16:32:64-S128"
target triple = "x86_64-pc-linux-gnu"

; Function Attrs: mustprogress nounwind uwtable
define internal void @_ZL15TestStateExFreePvS_P17crypto_ex_data_stilS_(ptr noundef %0, ptr noundef %1, ptr noundef %2, i32 noundef %3, i64 noundef %4, ptr noundef %5) #4 {
  %7 = alloca ptr, align 8
  %8 = alloca ptr, align 8
  %9 = alloca ptr, align 8
  %10 = alloca i32, align 4
  %11 = alloca i64, align 8
  %12 = alloca ptr, align 8
  store ptr %0, ptr %7, align 8, !tbaa !25
  store ptr %1, ptr %8, align 8, !tbaa !25
  store ptr %2, ptr %9, align 8, !tbaa !26
  store i32 %3, ptr %10, align 4, !tbaa !6
  store i64 %4, ptr %11, align 8, !tbaa !28
  store ptr %5, ptr %12, align 8, !tbaa !25
  %13 = load ptr, ptr %8, align 8, !tbaa !25
  %14 = icmp eq ptr %13, null
  br i1 %14, label %16, label %15

15:                                               ; preds = %6
  call void @_ZN9TestStateD2Ev(ptr noundef nonnull align 8 dereferenceable(117) %13) #18
  call void @_ZdlPv(ptr noundef %13) #19
  br label %16

16:                                               ; preds = %15, %6
  ret void
}