; Function Attrs: mustprogress nounwind uwtable
define internal void @_ZL15TestStateExFreePvS_P17crypto_ex_data_stilS_(ptr readnone captures(none) %0, ptr noundef %1, ptr readnone captures(none) %2, i32 %3, i64 %4, ptr readnone captures(none) %5) #4 {
  %7 = icmp eq ptr %1, null
  br i1 %7, label %9, label %8

8:                                                ; preds = %6
  tail call void @_ZN9TestStateD2Ev(ptr noundef nonnull align 8 dereferenceable(117) %1) #28
  tail call void @_ZdlPv(ptr noundef nonnull %1) #31
  br label %9

9:                                                ; preds = %8, %6
  ret void
}